target datalayout = "e-m:e-p270:32:32-p271:32:32-p272:64:64-i64:64-i128:128-f80:128-n8:16:32:64-S128"
target triple = "x86_64-pc-linux-gnu"

@hf_r3_declinedlog_recordnumber = internal global i32 0, align 4
@hf_r3_declinedlog_year = internal global i32 0, align 4
@hf_r3_declinedlog_month = internal global i32 0, align 4
@hf_r3_declinedlog_day = internal global i32 0, align 4
@hf_r3_declinedlog_hour = internal global i32 0, align 4
@hf_r3_declinedlog_minute = internal global i32 0, align 4
@hf_r3_declinedlog_second = internal global i32 0, align 4
@hf_r3_declinedlog_usernumber = internal global i32 0, align 4
@hf_r3_declinedlog_cred1type = internal global i32 0, align 4
@hf_r3_declinedlog_cred2type = internal global i32 0, align 4
@hf_r3_declinedlog_cred1 = internal global i32 0, align 4
@hf_r3_declinedlog_cred2 = internal global i32 0, align 4
@ett_r3declinedlogrecord = internal global i32 0, align 4
@.str.1860 = private unnamed_addr constant [29 x i8] c"%s:%u: failed assertion \22%s\22\00", align 1
@.str.1861 = private unnamed_addr constant [33 x i8] c"epan/dissectors/packet-assa_r3.c\00", align 1
@.str.1862 = private unnamed_addr constant [18 x i8] c"start_offset == 0\00", align 1
@.str.2127 = private unnamed_addr constant [23 x i8] c"Declined Log Record %u\00", align 1

; Function Attrs: null_pointer_is_valid sspstrong uwtable
define internal void @dissect_r3_upstreamcommand_dumpdeclinedlog(ptr noundef %0, i32 noundef %1, i32 noundef %2, ptr noundef %3, ptr noundef %4) #0 {
  %6 = alloca ptr, align 8
  %7 = alloca i32, align 4
  %8 = alloca i32, align 4
  %9 = alloca ptr, align 8
  %10 = alloca ptr, align 8
  %11 = alloca ptr, align 8
  %12 = alloca i8, align 1
  %13 = alloca i8, align 1
  %14 = alloca i32, align 4
  store ptr %0, ptr %6, align 8
  store i32 %1, ptr %7, align 4
  store i32 %2, ptr %8, align 4
  store ptr %3, ptr %9, align 8
  store ptr %4, ptr %10, align 8
  call void @llvm.lifetime.start.p0(i64 8, ptr %11) #5
  call void @llvm.lifetime.start.p0(i64 1, ptr %12) #5
  call void @llvm.lifetime.start.p0(i64 1, ptr %13) #5
  %15 = load ptr, ptr %10, align 8
  %16 = icmp ne ptr %15, null
  br i1 %16, label %18, label %17

17:                                               ; preds = %5
  store i32 1, ptr %14, align 4
  br label %96

18:                                               ; preds = %5
  %19 = load i32, ptr %7, align 4
  %20 = icmp eq i32 %19, 0
  br i1 %20, label %21, label %22

21:                                               ; preds = %18
  br label %24

22:                                               ; preds = %18
  call void (ptr, ...) @proto_report_dissector_bug(ptr noundef @.str.1860, ptr noundef @.str.1861, i32 noundef 4106, ptr noundef @.str.1862) #6
  unreachable

23:                                               ; No predecessors!
  br label %24

24:                                               ; preds = %23, %21
  %25 = load ptr, ptr %10, align 8
  %26 = load ptr, ptr %6, align 8
  %27 = load i32, ptr %7, align 4
  %28 = load i32, ptr @ett_r3declinedlogrecord, align 4
  %29 = load ptr, ptr %6, align 8
  %30 = call zeroext i16 @tvb_get_letohs(ptr noundef %29, i32 noundef 0)
  %31 = zext i16 %30 to i32
  %32 = call ptr (ptr, ptr, i32, i32, i32, ptr, ptr, ...) @proto_tree_add_subtree_format(ptr noundef %25, ptr noundef %26, i32 noundef %27, i32 noundef 49, i32 noundef %28, ptr noundef null, ptr noundef @.str.2127, i32 noundef %31)
  store ptr %32, ptr %11, align 8
  %33 = load ptr, ptr %11, align 8
  %34 = load i32, ptr @hf_r3_declinedlog_recordnumber, align 4
  %35 = load ptr, ptr %6, align 8
  %36 = call ptr @proto_tree_add_item(ptr noundef %33, i32 noundef %34, ptr noundef %35, i32 noundef 0, i32 noundef 2, i32 noundef -2147483648)
  %37 = load ptr, ptr %11, align 8
  %38 = load i32, ptr @hf_r3_declinedlog_year, align 4
  %39 = load ptr, ptr %6, align 8
  %40 = call ptr @proto_tree_add_item(ptr noundef %37, i32 noundef %38, ptr noundef %39, i32 noundef 2, i32 noundef 1, i32 noundef -2147483648)
  %41 = load ptr, ptr %11, align 8
  %42 = load i32, ptr @hf_r3_declinedlog_month, align 4
  %43 = load ptr, ptr %6, align 8
  %44 = call ptr @proto_tree_add_item(ptr noundef %41, i32 noundef %42, ptr noundef %43, i32 noundef 3, i32 noundef 1, i32 noundef -2147483648)
  %45 = load ptr, ptr %11, align 8
  %46 = load i32, ptr @hf_r3_declinedlog_day, align 4
  %47 = load ptr, ptr %6, align 8
  %48 = call ptr @proto_tree_add_item(ptr noundef %45, i32 noundef %46, ptr noundef %47, i32 noundef 4, i32 noundef 1, i32 noundef -2147483648)
  %49 = load ptr, ptr %11, align 8
  %50 = load i32, ptr @hf_r3_declinedlog_hour, align 4
  %51 = load ptr, ptr %6, align 8
  %52 = call ptr @proto_tree_add_item(ptr noundef %49, i32 noundef %50, ptr noundef %51, i32 noundef 5, i32 noundef 1, i32 noundef -2147483648)
  %53 = load ptr, ptr %11, align 8
  %54 = load i32, ptr @hf_r3_declinedlog_minute, align 4
  %55 = load ptr, ptr %6, align 8
  %56 = call ptr @proto_tree_add_item(ptr noundef %53, i32 noundef %54, ptr noundef %55, i32 noundef 6, i32 noundef 1, i32 noundef -2147483648)
  %57 = load ptr, ptr %11, align 8
  %58 = load i32, ptr @hf_r3_declinedlog_second, align 4
  %59 = load ptr, ptr %6, align 8
  %60 = call ptr @proto_tree_add_item(ptr noundef %57, i32 noundef %58, ptr noundef %59, i32 noundef 7, i32 noundef 1, i32 noundef -2147483648)
  %61 = load ptr, ptr %11, align 8
  %62 = load i32, ptr @hf_r3_declinedlog_usernumber, align 4
  %63 = load ptr, ptr %6, align 8
  %64 = call ptr @proto_tree_add_item(ptr noundef %61, i32 noundef %62, ptr noundef %63, i32 noundef 8, i32 noundef 2, i32 noundef -2147483648)
  %65 = load ptr, ptr %6, align 8
  %66 = call zeroext i8 @tvb_get_uint8(ptr noundef %65, i32 noundef 10)
  %67 = zext i8 %66 to i32
  %68 = and i32 %67, 7
  %69 = trunc i32 %68 to i8
  store i8 %69, ptr %12, align 1
  %70 = load ptr, ptr %6, align 8
  %71 = call zeroext i8 @tvb_get_uint8(ptr noundef %70, i32 noundef 10)
  %72 = zext i8 %71 to i32
  %73 = and i32 %72, 56
  %74 = ashr i32 %73, 3
  %75 = trunc i32 %74 to i8
  store i8 %75, ptr %13, align 1
  %76 = load ptr, ptr %11, align 8
  %77 = load i32, ptr @hf_r3_declinedlog_cred1type, align 4
  %78 = load ptr, ptr %6, align 8
  %79 = load i8, ptr %12, align 1
  %80 = zext i8 %79 to i32
  %81 = call ptr @proto_tree_add_uint(ptr noundef %76, i32 noundef %77, ptr noundef %78, i32 noundef 10, i32 noundef 1, i32 noundef %80)
  %82 = load ptr, ptr %11, align 8
  %83 = load i32, ptr @hf_r3_declinedlog_cred2type, align 4
  %84 = load ptr, ptr %6, align 8
  %85 = load i8, ptr %13, align 1
  %86 = zext i8 %85 to i32
  %87 = call ptr @proto_tree_add_uint(ptr noundef %82, i32 noundef %83, ptr noundef %84, i32 noundef 10, i32 noundef 1, i32 noundef %86)
  %88 = load ptr, ptr %11, align 8
  %89 = load i32, ptr @hf_r3_declinedlog_cred1, align 4
  %90 = load ptr, ptr %6, align 8
  %91 = call ptr @proto_tree_add_item(ptr noundef %88, i32 noundef %89, ptr noundef %90, i32 noundef 11, i32 noundef 19, i32 noundef 0)
  %92 = load ptr, ptr %11, align 8
  %93 = load i32, ptr @hf_r3_declinedlog_cred2, align 4
  %94 = load ptr, ptr %6, align 8
  %95 = call ptr @proto_tree_add_item(ptr noundef %92, i32 noundef %93, ptr noundef %94, i32 noundef 30, i32 noundef 19, i32 noundef 0)
  store i32 0, ptr %14, align 4
  br label %96

96:                                               ; preds = %24, %17
  call void @llvm.lifetime.end.p0(i64 1, ptr %13) #5
  call void @llvm.lifetime.end.p0(i64 1, ptr %12) #5
  call void @llvm.lifetime.end.p0(i64 8, ptr %11) #5
  %97 = load i32, ptr %14, align 4
  switch i32 %97, label %99 [
    i32 0, label %98
    i32 1, label %98
  ]

98:                                               ; preds = %96, %96
  ret void

99:                                               ; preds = %96
  unreachable
}